target datalayout = "e-m:e-p270:32:32-p271:32:32-p272:64:64-i64:64-i128:128-f80:128-n8:16:32:64-S128"
target triple = "x86_64-pc-linux-gnu"

%struct._object = type { %union.anon, ptr }
%union.anon = type { i64 }
%struct._typeobject = type { %struct.PyVarObject, ptr, i64, i64, ptr, i64, ptr, ptr, ptr, ptr, ptr, ptr, ptr, ptr, ptr, ptr, ptr, ptr, ptr, i64, ptr, ptr, ptr, ptr, i64, ptr, ptr, ptr, ptr, ptr, ptr, ptr, ptr, ptr, i64, ptr, ptr, ptr, ptr, ptr, ptr, ptr, ptr, ptr, ptr, ptr, i32, ptr, ptr, i8, i16 }
%struct.PyVarObject = type { %struct._object, i64 }
%struct.PyFloatObject = type { %struct._object, double }

@PyFloat_Type = external global %struct._typeobject, align 8
@PyLong_Type = external global %struct._typeobject, align 8

; Function Attrs: inlinehint nounwind uwtable
define internal ptr @_Py_TYPE(ptr noundef %0) #6 {
  %2 = alloca ptr, align 8
  store ptr %0, ptr %2, align 8, !tbaa !3
  %3 = load ptr, ptr %2, align 8, !tbaa !3
  %4 = getelementptr inbounds nuw %struct._object, ptr %3, i32 0, i32 1
  %5 = load ptr, ptr %4, align 8, !tbaa !48
  ret ptr %5
}

; Function Attrs: inlinehint nounwind uwtable
define internal double @PyFloat_AS_DOUBLE(ptr noundef %0) #6 {
  %2 = alloca ptr, align 8
  store ptr %0, ptr %2, align 8, !tbaa !3
  %3 = load ptr, ptr %2, align 8, !tbaa !3
  %4 = getelementptr inbounds nuw %struct.PyFloatObject, ptr %3, i32 0, i32 1
  %5 = load double, ptr %4, align 8, !tbaa !43
  ret double %5
}

; Function Attrs: inlinehint nounwind uwtable
define internal i32 @Py_IS_TYPE(ptr noundef %0, ptr noundef %1) #6 {
  %3 = alloca ptr, align 8
  %4 = alloca ptr, align 8
  store ptr %0, ptr %3, align 8, !tbaa !3
  store ptr %1, ptr %4, align 8, !tbaa !42
  %5 = load ptr, ptr %3, align 8, !tbaa !3
  %6 = call ptr @_Py_TYPE(ptr noundef %5)
  %7 = load ptr, ptr %4, align 8, !tbaa !42
  %8 = icmp eq ptr %6, %7
  %9 = zext i1 %8 to i32
  ret i32 %9
}

; Function Attrs: nounwind uwtable
define internal ptr @math_hypot_impl(ptr noundef %0, ptr noundef %1, i64 noundef %2) #0 {
  %4 = alloca ptr, align 8
  %5 = alloca ptr, align 8
  %6 = alloca ptr, align 8
  %7 = alloca i64, align 8
  %8 = alloca i64, align 8
  %9 = alloca ptr, align 8
  %10 = alloca double, align 8
  %11 = alloca double, align 8
  %12 = alloca double, align 8
  %13 = alloca i32, align 4
  %14 = alloca [16 x double], align 16
  %15 = alloca ptr, align 8
  %16 = alloca i32, align 4
  store ptr %0, ptr %5, align 8, !tbaa !3
  store ptr %1, ptr %6, align 8, !tbaa !9
  store i64 %2, ptr %7, align 8, !tbaa !11
  call void @llvm.lifetime.start.p0(i64 8, ptr %8) #10
  call void @llvm.lifetime.start.p0(i64 8, ptr %9) #10
  call void @llvm.lifetime.start.p0(i64 8, ptr %10) #10
  store double 0.000000e+00, ptr %10, align 8, !tbaa !13
  call void @llvm.lifetime.start.p0(i64 8, ptr %11) #10
  call void @llvm.lifetime.start.p0(i64 8, ptr %12) #10
  call void @llvm.lifetime.start.p0(i64 4, ptr %13) #10
  store i32 0, ptr %13, align 4, !tbaa !17
  call void @llvm.lifetime.start.p0(i64 128, ptr %14) #10
  call void @llvm.lifetime.start.p0(i64 8, ptr %15) #10
  %17 = getelementptr inbounds [16 x double], ptr %14, i64 0, i64 0
  store ptr %17, ptr %15, align 8, !tbaa !20
  %18 = load i64, ptr %7, align 8, !tbaa !11
  %19 = icmp sgt i64 %18, 16
  br i1 %19, label %20, label %29

20:                                               ; preds = %3
  %21 = load i64, ptr %7, align 8, !tbaa !11
  %22 = mul i64 %21, 8
  %23 = call ptr @PyMem_Malloc(i64 noundef %22)
  store ptr %23, ptr %15, align 8, !tbaa !20
  %24 = load ptr, ptr %15, align 8, !tbaa !20
  %25 = icmp eq ptr %24, null
  br i1 %25, label %26, label %28

26:                                               ; preds = %20
  %27 = call ptr @PyErr_NoMemory()
  store ptr %27, ptr %4, align 8
  store i32 1, ptr %16, align 4
  br label %112

28:                                               ; preds = %20
  br label %29

29:                                               ; preds = %28, %3
  store i64 0, ptr %8, align 8, !tbaa !11
  br label %30

30:                                               ; preds = %88, %29
  %31 = load i64, ptr %8, align 8, !tbaa !11
  %32 = load i64, ptr %7, align 8, !tbaa !11
  %33 = icmp slt i64 %31, %32
  br i1 %33, label %34, label %91

34:                                               ; preds = %30
  %35 = load ptr, ptr %6, align 8, !tbaa !9
  %36 = load i64, ptr %8, align 8, !tbaa !11
  %37 = getelementptr ptr, ptr %35, i64 %36
  %38 = load ptr, ptr %37, align 8, !tbaa !3
  store ptr %38, ptr %9, align 8, !tbaa !3
  %39 = load ptr, ptr %9, align 8, !tbaa !3
  %40 = call i32 @Py_IS_TYPE(ptr noundef %39, ptr noundef @PyFloat_Type)
  %41 = icmp ne i32 %40, 0
  br i1 %41, label %42, label %45

42:                                               ; preds = %34
  %43 = load ptr, ptr %9, align 8, !tbaa !3
  %44 = call double @PyFloat_AS_DOUBLE(ptr noundef %43)
  store double %44, ptr %11, align 8, !tbaa !13
  br label %70

45:                                               ; preds = %34
  %46 = load ptr, ptr %9, align 8, !tbaa !3
  %47 = call i32 @Py_IS_TYPE(ptr noundef %46, ptr noundef @PyLong_Type)
  %48 = icmp ne i32 %47, 0
  br i1 %48, label %49, label %59

49:                                               ; preds = %45
  %50 = load ptr, ptr %9, align 8, !tbaa !3
  %51 = call double @PyLong_AsDouble(ptr noundef %50)
  store double %51, ptr %11, align 8, !tbaa !13
  %52 = load double, ptr %11, align 8, !tbaa !13
  %53 = fcmp oeq double %52, -1.000000e+00
  br i1 %53, label %54, label %58

54:                                               ; preds = %49
  %55 = call ptr @PyErr_Occurred()
  %56 = icmp ne ptr %55, null
  br i1 %56, label %57, label %58

57:                                               ; preds = %54
  br label %105

58:                                               ; preds = %54, %49
  br label %69

59:                                               ; preds = %45
  %60 = load ptr, ptr %9, align 8, !tbaa !3
  %61 = call double @PyFloat_AsDouble(ptr noundef %60)
  store double %61, ptr %11, align 8, !tbaa !13
  %62 = load double, ptr %11, align 8, !tbaa !13
  %63 = fcmp oeq double %62, -1.000000e+00
  br i1 %63, label %64, label %68

64:                                               ; preds = %59
  %65 = call ptr @PyErr_Occurred()
  %66 = icmp ne ptr %65, null
  br i1 %66, label %67, label %68

67:                                               ; preds = %64
  br label %105

68:                                               ; preds = %64, %59
  br label %69

69:                                               ; preds = %68, %58
  br label %70

70:                                               ; preds = %69, %42
  %71 = load double, ptr %11, align 8, !tbaa !13
  %72 = call double @llvm.fabs.f64(double %71)
  store double %72, ptr %11, align 8, !tbaa !13
  %73 = load double, ptr %11, align 8, !tbaa !13
  %74 = load ptr, ptr %15, align 8, !tbaa !20
  %75 = load i64, ptr %8, align 8, !tbaa !11
  %76 = getelementptr double, ptr %74, i64 %75
  store double %73, ptr %76, align 8, !tbaa !13
  %77 = load double, ptr %11, align 8, !tbaa !13
  %78 = call i1 @llvm.is.fpclass.f64(double %77, i32 3)
  %79 = zext i1 %78 to i32
  %80 = load i32, ptr %13, align 4, !tbaa !17
  %81 = or i32 %80, %79
  store i32 %81, ptr %13, align 4, !tbaa !17
  %82 = load double, ptr %11, align 8, !tbaa !13
  %83 = load double, ptr %10, align 8, !tbaa !13
  %84 = fcmp ogt double %82, %83
  br i1 %84, label %85, label %87

85:                                               ; preds = %70
  %86 = load double, ptr %11, align 8, !tbaa !13
  store double %86, ptr %10, align 8, !tbaa !13
  br label %87

87:                                               ; preds = %85, %70
  br label %88

88:                                               ; preds = %87
  %89 = load i64, ptr %8, align 8, !tbaa !11
  %90 = add i64 %89, 1
  store i64 %90, ptr %8, align 8, !tbaa !11
  br label %30, !llvm.loop !72

91:                                               ; preds = %30
  %92 = load i64, ptr %7, align 8, !tbaa !11
  %93 = load ptr, ptr %15, align 8, !tbaa !20
  %94 = load double, ptr %10, align 8, !tbaa !13
  %95 = load i32, ptr %13, align 4, !tbaa !17
  %96 = call double @vector_norm(i64 noundef %92, ptr noundef %93, double noundef %94, i32 noundef %95)
  store double %96, ptr %12, align 8, !tbaa !13
  %97 = load ptr, ptr %15, align 8, !tbaa !20
  %98 = getelementptr inbounds [16 x double], ptr %14, i64 0, i64 0
  %99 = icmp ne ptr %97, %98
  br i1 %99, label %100, label %102

100:                                              ; preds = %91
  %101 = load ptr, ptr %15, align 8, !tbaa !20
  call void @PyMem_Free(ptr noundef %101)
  br label %102

102:                                              ; preds = %100, %91
  %103 = load double, ptr %12, align 8, !tbaa !13
  %104 = call ptr @PyFloat_FromDouble(double noundef %103)
  store ptr %104, ptr %4, align 8
  store i32 1, ptr %16, align 4
  br label %112

105:                                              ; preds = %67, %57
  %106 = load ptr, ptr %15, align 8, !tbaa !20
  %107 = getelementptr inbounds [16 x double], ptr %14, i64 0, i64 0
  %108 = icmp ne ptr %106, %107
  br i1 %108, label %109, label %111

109:                                              ; preds = %105
  %110 = load ptr, ptr %15, align 8, !tbaa !20
  call void @PyMem_Free(ptr noundef %110)
  br label %111

111:                                              ; preds = %109, %105
  store ptr null, ptr %4, align 8
  store i32 1, ptr %16, align 4
  br label %112

112:                                              ; preds = %111, %102, %26
  call void @llvm.lifetime.end.p0(i64 8, ptr %15) #10
  call void @llvm.lifetime.end.p0(i64 128, ptr %14) #10
  call void @llvm.lifetime.end.p0(i64 4, ptr %13) #10
  call void @llvm.lifetime.end.p0(i64 8, ptr %12) #10
  call void @llvm.lifetime.end.p0(i64 8, ptr %11) #10
  call void @llvm.lifetime.end.p0(i64 8, ptr %10) #10
  call void @llvm.lifetime.end.p0(i64 8, ptr %9) #10
  call void @llvm.lifetime.end.p0(i64 8, ptr %8) #10
  %113 = load ptr, ptr %4, align 8
  ret ptr %113
}

; Function Attrs: nounwind uwtable
define internal ptr @math_hypot(ptr noundef %0, ptr noundef %1, i64 noundef %2) #0 {
  %4 = alloca ptr, align 8
  %5 = alloca ptr, align 8
  %6 = alloca i64, align 8
  %7 = alloca ptr, align 8
  %8 = alloca ptr, align 8
  %9 = alloca i64, align 8
  store ptr %0, ptr %4, align 8, !tbaa !3
  store ptr %1, ptr %5, align 8, !tbaa !9
  store i64 %2, ptr %6, align 8, !tbaa !11
  call void @llvm.lifetime.start.p0(i64 8, ptr %7) #10
  store ptr null, ptr %7, align 8, !tbaa !3
  call void @llvm.lifetime.start.p0(i64 8, ptr %8) #10
  call void @llvm.lifetime.start.p0(i64 8, ptr %9) #10
  %10 = load ptr, ptr %5, align 8, !tbaa !9
  store ptr %10, ptr %8, align 8, !tbaa !9
  %11 = load i64, ptr %6, align 8, !tbaa !11
  store i64 %11, ptr %9, align 8, !tbaa !11
  %12 = load ptr, ptr %4, align 8, !tbaa !3
  %13 = load ptr, ptr %8, align 8, !tbaa !9
  %14 = load i64, ptr %9, align 8, !tbaa !11
  %15 = call ptr @math_hypot_impl(ptr noundef %12, ptr noundef %13, i64 noundef %14)
  store ptr %15, ptr %7, align 8, !tbaa !3
  %16 = load ptr, ptr %7, align 8, !tbaa !3
  call void @llvm.lifetime.end.p0(i64 8, ptr %9) #10
  call void @llvm.lifetime.end.p0(i64 8, ptr %8) #10
  call void @llvm.lifetime.end.p0(i64 8, ptr %7) #10
  ret ptr %16
}