; Function Attrs: nounwind uwtable
define internal ptr @math_hypot(ptr readnone captures(none) %0, ptr noundef readonly captures(none) %1, i64 noundef %2) #0 {
  %4 = alloca [16 x double], align 16
  call void @llvm.lifetime.start.p0(i64 128, ptr nonnull %4) #16
  %5 = icmp sgt i64 %2, 16
  br i1 %5, label %6, label %12

6:                                                ; preds = %3
  %7 = shl i64 %2, 3
  %8 = tail call ptr @PyMem_Malloc(i64 noundef %7) #16
  %9 = icmp eq ptr %8, null
  br i1 %9, label %10, label %.lr.ph.preheader.i

10:                                               ; preds = %6
  %11 = tail call ptr @PyErr_NoMemory() #16
  br label %math_hypot_impl.exit

12:                                               ; preds = %3
  %13 = icmp sgt i64 %2, 0
  br i1 %13, label %.lr.ph.preheader.i, label %._crit_edge.thread.i

.lr.ph.preheader.i:                               ; preds = %12, %6
  %.010.i = phi ptr [ %4, %12 ], [ %8, %6 ]
  br label %.lr.ph.i

.lr.ph.i:                                         ; preds = %30, %.lr.ph.preheader.i
  %.0337.i = phi i32 [ %35, %30 ], [ 0, %.lr.ph.preheader.i ]
  %.0366.i = phi double [ %.1.i, %30 ], [ 0.000000e+00, %.lr.ph.preheader.i ]
  %.0375.i = phi i64 [ %37, %30 ], [ 0, %.lr.ph.preheader.i ]
  %14 = getelementptr ptr, ptr %1, i64 %.0375.i
  %15 = load ptr, ptr %14, align 8, !tbaa !12
  %16 = getelementptr i8, ptr %15, i64 8
  %.val51.i = load ptr, ptr %16, align 8, !tbaa !16
  %.not1.i = icmp eq ptr %.val51.i, @PyFloat_Type
  br i1 %.not1.i, label %17, label %19

17:                                               ; preds = %.lr.ph.i
  %18 = getelementptr i8, ptr %15, i64 16
  %.val52.i = load double, ptr %18, align 8, !tbaa !17
  br label %30

19:                                               ; preds = %.lr.ph.i
  %.not2.i = icmp eq ptr %.val51.i, @PyLong_Type
  br i1 %.not2.i, label %20, label %25

20:                                               ; preds = %19
  %21 = tail call double @PyLong_AsDouble(ptr noundef nonnull %15) #16
  %22 = fcmp oeq double %21, -1.000000e+00
  br i1 %22, label %23, label %30

23:                                               ; preds = %20
  %24 = tail call ptr @PyErr_Occurred() #16
  %.not49.i = icmp eq ptr %24, null
  br i1 %.not49.i, label %30, label %42

25:                                               ; preds = %19
  %26 = tail call double @PyFloat_AsDouble(ptr noundef nonnull %15) #16
  %27 = fcmp oeq double %26, -1.000000e+00
  br i1 %27, label %28, label %30

28:                                               ; preds = %25
  %29 = tail call ptr @PyErr_Occurred() #16
  %.not48.i = icmp eq ptr %29, null
  br i1 %.not48.i, label %30, label %42

30:                                               ; preds = %28, %25, %23, %20, %17
  %.035.i = phi double [ %.val52.i, %17 ], [ -1.000000e+00, %23 ], [ %21, %20 ], [ -1.000000e+00, %28 ], [ %26, %25 ]
  %31 = tail call double @llvm.fabs.f64(double %.035.i)
  %32 = getelementptr double, ptr %.010.i, i64 %.0375.i
  store double %31, ptr %32, align 8, !tbaa !33
  %33 = fcmp uno double %.035.i, 0.000000e+00
  %34 = zext i1 %33 to i32
  %35 = or i32 %.0337.i, %34
  %36 = fcmp ogt double %31, %.0366.i
  %.1.i = select i1 %36, double %31, double %.0366.i
  %37 = add nuw nsw i64 %.0375.i, 1
  %exitcond.not.i = icmp eq i64 %37, %2
  br i1 %exitcond.not.i, label %._crit_edge.i, label %.lr.ph.i, !llvm.loop !44

._crit_edge.i:                                    ; preds = %30
  %38 = call fastcc double @vector_norm(i64 noundef %2, ptr noundef %.010.i, double noundef %.1.i, i32 noundef %35)
  %.not.i = icmp eq ptr %.010.i, %4
  br i1 %.not.i, label %._crit_edge.thread.i, label %39

39:                                               ; preds = %._crit_edge.i
  call void @PyMem_Free(ptr noundef nonnull %.010.i) #16
  br label %._crit_edge.thread.i

._crit_edge.thread.i:                             ; preds = %12, %39, %._crit_edge.i
  %40 = phi double [ %38, %39 ], [ %38, %._crit_edge.i ], [ 0.000000e+00, %12 ]
  %41 = call ptr @PyFloat_FromDouble(double noundef %40) #16
  br label %math_hypot_impl.exit

42:                                               ; preds = %28, %23
  %.not50.i = icmp eq ptr %.010.i, %4
  br i1 %.not50.i, label %math_hypot_impl.exit, label %43

43:                                               ; preds = %42
  call void @PyMem_Free(ptr noundef nonnull %.010.i) #16
  br label %math_hypot_impl.exit

math_hypot_impl.exit:                             ; preds = %10, %._crit_edge.thread.i, %42, %43
  %.034.i = phi ptr [ %11, %10 ], [ %41, %._crit_edge.thread.i ], [ null, %43 ], [ null, %42 ]
  call void @llvm.lifetime.end.p0(i64 128, ptr nonnull %4) #16
  ret ptr %.034.i
}